; Function Attrs: mustprogress nounwind uwtable
define hidden { i32, i64 } @_ZN6hermes2vm22objectDefinePropertiesEPvRNS0_7RuntimeENS0_10NativeArgsE(ptr readnone captures(none) %0, ptr noundef nonnull align 8 dereferenceable(9832) %runtime, ptr noundef readonly captures(none) %args) #0 {
entry:
  %argCount_.i = getelementptr inbounds nuw i8, ptr %args, i64 8
  %1 = load i32, ptr %argCount_.i, align 8
  %cmp.i.not = icmp eq i32 %1, 0
  %2 = load ptr, ptr %args, align 8
  %incdec.ptr.i.i.i = getelementptr inbounds i8, ptr %2, i64 -8
  %retval.sroa.0.0.i = select i1 %cmp.i.not, ptr @_ZN6hermes2vm15HandleRootOwner15undefinedValue_E, ptr %incdec.ptr.i.i.i
  %cmp.i2 = icmp ugt i32 %1, 1
  %incdec.ptr.i.i.i3 = getelementptr inbounds i8, ptr %2, i64 -16
  %retval.sroa.0.0.i4 = select i1 %cmp.i2, ptr %incdec.ptr.i.i.i3, ptr @_ZN6hermes2vm15HandleRootOwner15undefinedValue_E
  %call10 = tail call fastcc { i32, i64 } @_ZN6hermes2vmL30objectDefinePropertiesInternalERNS0_7RuntimeENS0_6HandleINS0_11HermesValueEEES5_(ptr noundef nonnull align 8 dereferenceable(9832) %runtime, ptr nonnull %retval.sroa.0.0.i, ptr nonnull %retval.sroa.0.0.i4)
  %3 = extractvalue { i32, i64 } %call10, 0
  %4 = extractvalue { i32, i64 } %call10, 1
  %cmp.i5 = icmp ne i32 %3, 0
  %spec.select = zext i1 %cmp.i5 to i32
  %spec.select6 = select i1 %cmp.i5, i64 %4, i64 undef
  %.fca.0.insert = insertvalue { i32, i64 } poison, i32 %spec.select, 0
  %.fca.1.insert = insertvalue { i32, i64 } %.fca.0.insert, i64 %spec.select6, 1
  ret { i32, i64 } %.fca.1.insert
}